; Function Attrs: mustprogress uwtable
define noundef ptr @llama_sampler_name(ptr noundef %0) local_unnamed_addr #0 {
  %2 = load ptr, ptr %0, align 8, !tbaa !3
  %.not = icmp eq ptr %2, null
  br i1 %.not, label %6, label %3

3:                                                ; preds = %1
  %4 = load ptr, ptr %2, align 8, !tbaa !10
  %5 = tail call noundef ptr %4(ptr noundef nonnull %0)
  br label %6

6:                                                ; preds = %1, %3
  %.0 = phi ptr [ %5, %3 ], [ @.str, %1 ]
  ret ptr %.0
}